
bomb:     file format elf64-x86-64


Disassembly of section .init:

0000000000001000 <_init>:
    1000:	f3 0f 1e fa          	endbr64 
    1004:	48 83 ec 08          	sub    $0x8,%rsp
    1008:	48 8b 05 d9 2f 00 00 	mov    0x2fd9(%rip),%rax        # 3fe8 <__gmon_start__>
    100f:	48 85 c0             	test   %rax,%rax
    1012:	74 02                	je     1016 <_init+0x16>
    1014:	ff d0                	call   *%rax
    1016:	48 83 c4 08          	add    $0x8,%rsp
    101a:	c3                   	ret    

Disassembly of section .plt:

0000000000001020 <.plt>:
    1020:	ff 35 7a 2f 00 00    	push   0x2f7a(%rip)        # 3fa0 <_GLOBAL_OFFSET_TABLE_+0x8>
    1026:	f2 ff 25 7b 2f 00 00 	bnd jmp *0x2f7b(%rip)        # 3fa8 <_GLOBAL_OFFSET_TABLE_+0x10>
    102d:	0f 1f 00             	nopl   (%rax)
    1030:	f3 0f 1e fa          	endbr64 
    1034:	68 00 00 00 00       	push   $0x0
    1039:	f2 e9 e1 ff ff ff    	bnd jmp 1020 <.plt>
    103f:	90                   	nop
    1040:	f3 0f 1e fa          	endbr64 
    1044:	68 01 00 00 00       	push   $0x1
    1049:	f2 e9 d1 ff ff ff    	bnd jmp 1020 <.plt>
    104f:	90                   	nop
    1050:	f3 0f 1e fa          	endbr64 
    1054:	68 02 00 00 00       	push   $0x2
    1059:	f2 e9 c1 ff ff ff    	bnd jmp 1020 <.plt>
    105f:	90                   	nop
    1060:	f3 0f 1e fa          	endbr64 
    1064:	68 03 00 00 00       	push   $0x3
    1069:	f2 e9 b1 ff ff ff    	bnd jmp 1020 <.plt>
    106f:	90                   	nop
    1070:	f3 0f 1e fa          	endbr64 
    1074:	68 04 00 00 00       	push   $0x4
    1079:	f2 e9 a1 ff ff ff    	bnd jmp 1020 <.plt>
    107f:	90                   	nop

Disassembly of section .plt.got:

0000000000001080 <__cxa_finalize@plt>:
    1080:	f3 0f 1e fa          	endbr64 
    1084:	f2 ff 25 6d 2f 00 00 	bnd jmp *0x2f6d(%rip)        # 3ff8 <__cxa_finalize@GLIBC_2.2.5>
    108b:	0f 1f 44 00 00       	nopl   0x0(%rax,%rax,1)

Disassembly of section .plt.sec:

0000000000001090 <fprintf@plt>:
    1090:	f3 0f 1e fa          	endbr64 
    1094:	f2 ff 25 15 2f 00 00 	bnd jmp *0x2f15(%rip)        # 3fb0 <fprintf@GLIBC_2.2.5>
    109b:	0f 1f 44 00 00       	nopl   0x0(%rax,%rax,1)

00000000000010a0 <fflush@plt>:
    10a0:	f3 0f 1e fa          	endbr64 
    10a4:	f2 ff 25 0d 2f 00 00 	bnd jmp *0x2f0d(%rip)        # 3fb8 <fflush@GLIBC_2.2.5>
    10ab:	0f 1f 44 00 00       	nopl   0x0(%rax,%rax,1)

00000000000010b0 <fopen@plt>:
    10b0:	f3 0f 1e fa          	endbr64 
    10b4:	f2 ff 25 05 2f 00 00 	bnd jmp *0x2f05(%rip)        # 3fc0 <fopen@GLIBC_2.2.5>
    10bb:	0f 1f 44 00 00       	nopl   0x0(%rax,%rax,1)

00000000000010c0 <exit@plt>:
    10c0:	f3 0f 1e fa          	endbr64 
    10c4:	f2 ff 25 fd 2e 00 00 	bnd jmp *0x2efd(%rip)        # 3fc8 <exit@GLIBC_2.2.5>
    10cb:	0f 1f 44 00 00       	nopl   0x0(%rax,%rax,1)

00000000000010d0 <fwrite@plt>:
    10d0:	f3 0f 1e fa          	endbr64 
    10d4:	f2 ff 25 f5 2e 00 00 	bnd jmp *0x2ef5(%rip)        # 3fd0 <fwrite@GLIBC_2.2.5>
    10db:	0f 1f 44 00 00       	nopl   0x0(%rax,%rax,1)

Disassembly of section .text:

00000000000010e0 <_start>:
    10e0:	f3 0f 1e fa          	endbr64 
    10e4:	31 ed                	xor    %ebp,%ebp
    10e6:	49 89 d1             	mov    %rdx,%r9
    10e9:	5e                   	pop    %rsi
    10ea:	48 89 e2             	mov    %rsp,%rdx
    10ed:	48 83 e4 f0          	and    $0xfffffffffffffff0,%rsp
    10f1:	50                   	push   %rax
    10f2:	54                   	push   %rsp
    10f3:	4c 8d 05 26 04 00 00 	lea    0x426(%rip),%r8        # 1520 <__libc_csu_fini>
    10fa:	48 8d 0d af 03 00 00 	lea    0x3af(%rip),%rcx        # 14b0 <__libc_csu_init>
    1101:	48 8d 3d c7 02 00 00 	lea    0x2c7(%rip),%rdi        # 13cf <main>
    1108:	ff 15 d2 2e 00 00    	call   *0x2ed2(%rip)        # 3fe0 <__libc_start_main@GLIBC_2.2.5>
    110e:	f4                   	hlt    
    110f:	90                   	nop

0000000000001110 <deregister_tm_clones>:
    1110:	48 8d 3d 71 2f 00 00 	lea    0x2f71(%rip),%rdi        # 4088 <__TMC_END__>
    1117:	48 8d 05 6a 2f 00 00 	lea    0x2f6a(%rip),%rax        # 4088 <__TMC_END__>
    111e:	48 39 f8             	cmp    %rdi,%rax
    1121:	74 15                	je     1138 <deregister_tm_clones+0x28>
    1123:	48 8b 05 ae 2e 00 00 	mov    0x2eae(%rip),%rax        # 3fd8 <_ITM_deregisterTMCloneTable>
    112a:	48 85 c0             	test   %rax,%rax
    112d:	74 09                	je     1138 <deregister_tm_clones+0x28>
    112f:	ff e0                	jmp    *%rax
    1131:	0f 1f 80 00 00 00 00 	nopl   0x0(%rax)
    1138:	c3                   	ret    
    1139:	0f 1f 80 00 00 00 00 	nopl   0x0(%rax)

0000000000001140 <register_tm_clones>:
    1140:	48 8d 3d 41 2f 00 00 	lea    0x2f41(%rip),%rdi        # 4088 <__TMC_END__>
    1147:	48 8d 35 3a 2f 00 00 	lea    0x2f3a(%rip),%rsi        # 4088 <__TMC_END__>
    114e:	48 29 fe             	sub    %rdi,%rsi
    1151:	48 89 f0             	mov    %rsi,%rax
    1154:	48 c1 ee 3f          	shr    $0x3f,%rsi
    1158:	48 c1 f8 03          	sar    $0x3,%rax
    115c:	48 01 c6             	add    %rax,%rsi
    115f:	48 d1 fe             	sar    %rsi
    1162:	74 14                	je     1178 <register_tm_clones+0x38>
    1164:	48 8b 05 85 2e 00 00 	mov    0x2e85(%rip),%rax        # 3ff0 <_ITM_registerTMCloneTable>
    116b:	48 85 c0             	test   %rax,%rax
    116e:	74 08                	je     1178 <register_tm_clones+0x38>
    1170:	ff e0                	jmp    *%rax
    1172:	66 0f 1f 44 00 00    	nopw   0x0(%rax,%rax,1)
    1178:	c3                   	ret    
    1179:	0f 1f 80 00 00 00 00 	nopl   0x0(%rax)

0000000000001180 <__do_global_dtors_aux>:
    1180:	f3 0f 1e fa          	endbr64 
    1184:	80 3d fd 2e 00 00 00 	cmpb   $0x0,0x2efd(%rip)        # 4088 <__TMC_END__>
    118b:	75 2b                	jne    11b8 <__do_global_dtors_aux+0x38>
    118d:	55                   	push   %rbp
    118e:	48 83 3d 62 2e 00 00 	cmpq   $0x0,0x2e62(%rip)        # 3ff8 <__cxa_finalize@GLIBC_2.2.5>
    1195:	00 
    1196:	48 89 e5             	mov    %rsp,%rbp
    1199:	74 0c                	je     11a7 <__do_global_dtors_aux+0x27>
    119b:	48 8b 3d 66 2e 00 00 	mov    0x2e66(%rip),%rdi        # 4008 <__dso_handle>
    11a2:	e8 d9 fe ff ff       	call   1080 <__cxa_finalize@plt>
    11a7:	e8 64 ff ff ff       	call   1110 <deregister_tm_clones>
    11ac:	c6 05 d5 2e 00 00 01 	movb   $0x1,0x2ed5(%rip)        # 4088 <__TMC_END__>
    11b3:	5d                   	pop    %rbp
    11b4:	c3                   	ret    
    11b5:	0f 1f 00             	nopl   (%rax)
    11b8:	c3                   	ret    
    11b9:	0f 1f 80 00 00 00 00 	nopl   0x0(%rax)

00000000000011c0 <frame_dummy>:
    11c0:	f3 0f 1e fa          	endbr64 
    11c4:	e9 77 ff ff ff       	jmp    1140 <register_tm_clones>

00000000000011c9 <success>:
    11c9:	f3 0f 1e fa          	endbr64 
    11cd:	55                   	push   %rbp
    11ce:	48 89 e5             	mov    %rsp,%rbp
    11d1:	48 83 ec 10          	sub    $0x10,%rsp
    11d5:	89 7d fc             	mov    %edi,-0x4(%rbp)
    11d8:	8b 05 ca 2e 00 00    	mov    0x2eca(%rip),%eax        # 40a8 <g_called_success_from>
    11de:	39 45 fc             	cmp    %eax,-0x4(%rbp)
    11e1:	75 67                	jne    124a <success+0x81>
    11e3:	48 8b 05 a6 2e 00 00 	mov    0x2ea6(%rip),%rax        # 4090 <g_bomb_file>
    11ea:	8b 55 fc             	mov    -0x4(%rbp),%edx
    11ed:	48 8d 35 14 0e 00 00 	lea    0xe14(%rip),%rsi        # 2008 <_IO_stdin_used+0x8>
    11f4:	48 89 c7             	mov    %rax,%rdi
    11f7:	b8 00 00 00 00       	mov    $0x0,%eax
    11fc:	e8 8f fe ff ff       	call   1090 <fprintf@plt>
    1201:	8b 45 fc             	mov    -0x4(%rbp),%eax
    1204:	83 e8 01             	sub    $0x1,%eax
    1207:	48 98                	cltq   
    1209:	48 8d 14 85 00 00 00 	lea    0x0(,%rax,4),%rdx
    1210:	00 
    1211:	48 8d 05 58 2e 00 00 	lea    0x2e58(%rip),%rax        # 4070 <g_secret_code>
    1218:	8b 0c 02             	mov    (%rdx,%rax,1),%ecx
    121b:	48 8b 05 6e 2e 00 00 	mov    0x2e6e(%rip),%rax        # 4090 <g_bomb_file>
    1222:	8b 55 fc             	mov    -0x4(%rbp),%edx
    1225:	48 8d 35 14 0e 00 00 	lea    0xe14(%rip),%rsi        # 2040 <_IO_stdin_used+0x40>
    122c:	48 89 c7             	mov    %rax,%rdi
    122f:	b8 00 00 00 00       	mov    $0x0,%eax
    1234:	e8 57 fe ff ff       	call   1090 <fprintf@plt>
    1239:	48 8b 05 50 2e 00 00 	mov    0x2e50(%rip),%rax        # 4090 <g_bomb_file>
    1240:	48 89 c7             	mov    %rax,%rdi
    1243:	e8 58 fe ff ff       	call   10a0 <fflush@plt>
    1248:	eb 0a                	jmp    1254 <success+0x8b>
    124a:	bf 05 00 00 00       	mov    $0x5,%edi
    124f:	e8 13 00 00 00       	call   1267 <bomb>
    1254:	83 7d fc 04          	cmpl   $0x4,-0x4(%rbp)
    1258:	75 0a                	jne    1264 <success+0x9b>
    125a:	bf 00 00 00 00       	mov    $0x0,%edi
    125f:	e8 5c fe ff ff       	call   10c0 <exit@plt>
    1264:	90                   	nop
    1265:	c9                   	leave  
    1266:	c3                   	ret    

0000000000001267 <bomb>:
    1267:	f3 0f 1e fa          	endbr64 
    126b:	55                   	push   %rbp
    126c:	48 89 e5             	mov    %rsp,%rbp
    126f:	48 83 ec 10          	sub    $0x10,%rsp
    1273:	89 7d fc             	mov    %edi,-0x4(%rbp)
    1276:	83 7d fc 04          	cmpl   $0x4,-0x4(%rbp)
    127a:	7f 20                	jg     129c <bomb+0x35>
    127c:	48 8b 05 0d 2e 00 00 	mov    0x2e0d(%rip),%rax        # 4090 <g_bomb_file>
    1283:	8b 55 fc             	mov    -0x4(%rbp),%edx
    1286:	48 8d 35 e3 0d 00 00 	lea    0xde3(%rip),%rsi        # 2070 <_IO_stdin_used+0x70>
    128d:	48 89 c7             	mov    %rax,%rdi
    1290:	b8 00 00 00 00       	mov    $0x0,%eax
    1295:	e8 f6 fd ff ff       	call   1090 <fprintf@plt>
    129a:	eb 20                	jmp    12bc <bomb+0x55>
    129c:	48 8b 05 ed 2d 00 00 	mov    0x2ded(%rip),%rax        # 4090 <g_bomb_file>
    12a3:	48 89 c1             	mov    %rax,%rcx
    12a6:	ba 4a 00 00 00       	mov    $0x4a,%edx
    12ab:	be 01 00 00 00       	mov    $0x1,%esi
    12b0:	48 8d 3d 09 0e 00 00 	lea    0xe09(%rip),%rdi        # 20c0 <_IO_stdin_used+0xc0>
    12b7:	e8 14 fe ff ff       	call   10d0 <fwrite@plt>
    12bc:	48 8b 05 cd 2d 00 00 	mov    0x2dcd(%rip),%rax        # 4090 <g_bomb_file>
    12c3:	48 89 c7             	mov    %rax,%rdi
    12c6:	e8 d5 fd ff ff       	call   10a0 <fflush@plt>
    12cb:	bf 01 00 00 00       	mov    $0x1,%edi
    12d0:	e8 eb fd ff ff       	call   10c0 <exit@plt>

00000000000012d5 <level_one>:
    12d5:	f3 0f 1e fa          	endbr64 
    12d9:	55                   	push   %rbp
    12da:	48 89 e5             	mov    %rsp,%rbp
    12dd:	48 83 ec 10          	sub    $0x10,%rsp
    12e1:	89 7d fc             	mov    %edi,-0x4(%rbp)
    12e4:	c7 05 ba 2d 00 00 01 	movl   $0x1,0x2dba(%rip)        # 40a8 <g_called_success_from>
    12eb:	00 00 00 
    12ee:	83 7d fc 00          	cmpl   $0x0,-0x4(%rbp)
    12f2:	74 05                	je     12f9 <level_one+0x24>
    12f4:	8b 45 fc             	mov    -0x4(%rbp),%eax
    12f7:	eb 0d                	jmp    1306 <level_one+0x31>
    12f9:	bf 01 00 00 00       	mov    $0x1,%edi
    12fe:	e8 64 ff ff ff       	call   1267 <bomb>
    1303:	8b 45 fc             	mov    -0x4(%rbp),%eax
    1306:	c9                   	leave  
    1307:	c3                   	ret    

0000000000001308 <level_two>:
    1308:	f3 0f 1e fa          	endbr64 
    130c:	55                   	push   %rbp
    130d:	48 89 e5             	mov    %rsp,%rbp
    1310:	48 83 ec 20          	sub    $0x20,%rsp
    1314:	89 7d ec             	mov    %edi,-0x14(%rbp)
    1317:	c7 45 fc 01 00 00 00 	movl   $0x1,-0x4(%rbp)
    131e:	c7 05 80 2d 00 00 02 	movl   $0x2,0x2d80(%rip)        # 40a8 <g_called_success_from>
    1325:	00 00 00 
    1328:	83 7d fc 00          	cmpl   $0x0,-0x4(%rbp)
    132c:	74 0c                	je     133a <level_two+0x32>
    132e:	bf 02 00 00 00       	mov    $0x2,%edi
    1333:	e8 2f ff ff ff       	call   1267 <bomb>
    1338:	eb 07                	jmp    1341 <level_two+0x39>
    133a:	c7 45 ec 02 00 00 00 	movl   $0x2,-0x14(%rbp)
    1341:	8b 45 ec             	mov    -0x14(%rbp),%eax
    1344:	c9                   	leave  
    1345:	c3                   	ret    

0000000000001346 <level_three>:
    1346:	f3 0f 1e fa          	endbr64 
    134a:	55                   	push   %rbp
    134b:	48 89 e5             	mov    %rsp,%rbp
    134e:	48 83 ec 10          	sub    $0x10,%rsp
    1352:	89 7d fc             	mov    %edi,-0x4(%rbp)
    1355:	c7 05 49 2d 00 00 03 	movl   $0x3,0x2d49(%rip)        # 40a8 <g_called_success_from>
    135c:	00 00 00 
    135f:	8b 05 33 2d 00 00    	mov    0x2d33(%rip),%eax        # 4098 <g_level_three>
    1365:	83 f8 03             	cmp    $0x3,%eax
    1368:	75 0c                	jne    1376 <level_three+0x30>
    136a:	c7 45 fc 02 00 00 00 	movl   $0x2,-0x4(%rbp)
    1371:	8b 45 fc             	mov    -0x4(%rbp),%eax
    1374:	eb 0d                	jmp    1383 <level_three+0x3d>
    1376:	bf 03 00 00 00       	mov    $0x3,%edi
    137b:	e8 e7 fe ff ff       	call   1267 <bomb>
    1380:	8b 45 fc             	mov    -0x4(%rbp),%eax
    1383:	c9                   	leave  
    1384:	c3                   	ret    

0000000000001385 <level_four>:
    1385:	f3 0f 1e fa          	endbr64 
    1389:	55                   	push   %rbp
    138a:	48 89 e5             	mov    %rsp,%rbp
    138d:	48 83 ec 10          	sub    $0x10,%rsp
    1391:	89 7d fc             	mov    %edi,-0x4(%rbp)
    1394:	c7 05 0a 2d 00 00 04 	movl   $0x4,0x2d0a(%rip)        # 40a8 <g_called_success_from>
    139b:	00 00 00 
    139e:	8b 05 fc 2c 00 00    	mov    0x2cfc(%rip),%eax        # 40a0 <g_level_four>
    13a4:	83 f8 04             	cmp    $0x4,%eax
    13a7:	75 17                	jne    13c0 <level_four+0x3b>
    13a9:	8b 05 f5 2c 00 00    	mov    0x2cf5(%rip),%eax        # 40a4 <g_level_four+0x4>
    13af:	83 f8 04             	cmp    $0x4,%eax
    13b2:	75 0c                	jne    13c0 <level_four+0x3b>
    13b4:	c7 45 fc 1c c8 06 00 	movl   $0x6c81c,-0x4(%rbp)
    13bb:	8b 45 fc             	mov    -0x4(%rbp),%eax
    13be:	eb 0d                	jmp    13cd <level_four+0x48>
    13c0:	bf 04 00 00 00       	mov    $0x4,%edi
    13c5:	e8 9d fe ff ff       	call   1267 <bomb>
    13ca:	8b 45 fc             	mov    -0x4(%rbp),%eax
    13cd:	c9                   	leave  
    13ce:	c3                   	ret    

00000000000013cf <main>:
    13cf:	f3 0f 1e fa          	endbr64 
    13d3:	55                   	push   %rbp
    13d4:	48 89 e5             	mov    %rsp,%rbp
    13d7:	48 83 ec 10          	sub    $0x10,%rsp
    13db:	c7 45 fc 00 00 00 00 	movl   $0x0,-0x4(%rbp)
    13e2:	48 8d 35 22 0d 00 00 	lea    0xd22(%rip),%rsi        # 210b <_IO_stdin_used+0x10b>
    13e9:	48 8d 3d 30 2c 00 00 	lea    0x2c30(%rip),%rdi        # 4020 <g_bomb_file_name>
    13f0:	e8 bb fc ff ff       	call   10b0 <fopen@plt>
    13f5:	48 89 05 94 2c 00 00 	mov    %rax,0x2c94(%rip)        # 4090 <g_bomb_file>
    13fc:	8b 45 fc             	mov    -0x4(%rbp),%eax
    13ff:	89 c7                	mov    %eax,%edi
    1401:	e8 cf fe ff ff       	call   12d5 <level_one>
    1406:	89 45 fc             	mov    %eax,-0x4(%rbp)
    1409:	83 7d fc 01          	cmpl   $0x1,-0x4(%rbp)
    140d:	0f 85 85 00 00 00    	jne    1498 <main+0xc9>
    1413:	bf 01 00 00 00       	mov    $0x1,%edi
    1418:	e8 ac fd ff ff       	call   11c9 <success>
    141d:	8b 45 fc             	mov    -0x4(%rbp),%eax
    1420:	89 c7                	mov    %eax,%edi
    1422:	e8 e1 fe ff ff       	call   1308 <level_two>
    1427:	89 45 fc             	mov    %eax,-0x4(%rbp)
    142a:	83 7d fc 02          	cmpl   $0x2,-0x4(%rbp)
    142e:	75 5c                	jne    148c <main+0xbd>
    1430:	bf 02 00 00 00       	mov    $0x2,%edi
    1435:	e8 8f fd ff ff       	call   11c9 <success>
    143a:	8b 45 fc             	mov    -0x4(%rbp),%eax
    143d:	89 c7                	mov    %eax,%edi
    143f:	e8 02 ff ff ff       	call   1346 <level_three>
    1444:	89 45 fc             	mov    %eax,-0x4(%rbp)
    1447:	83 7d fc 03          	cmpl   $0x3,-0x4(%rbp)
    144b:	75 33                	jne    1480 <main+0xb1>
    144d:	bf 03 00 00 00       	mov    $0x3,%edi
    1452:	e8 72 fd ff ff       	call   11c9 <success>
    1457:	8b 45 fc             	mov    -0x4(%rbp),%eax
    145a:	89 c7                	mov    %eax,%edi
    145c:	e8 24 ff ff ff       	call   1385 <level_four>
    1461:	89 45 fc             	mov    %eax,-0x4(%rbp)
    1464:	83 7d fc 04          	cmpl   $0x4,-0x4(%rbp)
    1468:	75 0a                	jne    1474 <main+0xa5>
    146a:	bf 04 00 00 00       	mov    $0x4,%edi
    146f:	e8 55 fd ff ff       	call   11c9 <success>
    1474:	bf 04 00 00 00       	mov    $0x4,%edi
    1479:	e8 e9 fd ff ff       	call   1267 <bomb>
    147e:	eb 22                	jmp    14a2 <main+0xd3>
    1480:	bf 03 00 00 00       	mov    $0x3,%edi
    1485:	e8 dd fd ff ff       	call   1267 <bomb>
    148a:	eb 16                	jmp    14a2 <main+0xd3>
    148c:	bf 02 00 00 00       	mov    $0x2,%edi
    1491:	e8 d1 fd ff ff       	call   1267 <bomb>
    1496:	eb 0a                	jmp    14a2 <main+0xd3>
    1498:	bf 01 00 00 00       	mov    $0x1,%edi
    149d:	e8 c5 fd ff ff       	call   1267 <bomb>
    14a2:	b8 00 00 00 00       	mov    $0x0,%eax
    14a7:	c9                   	leave  
    14a8:	c3                   	ret    
    14a9:	0f 1f 80 00 00 00 00 	nopl   0x0(%rax)

00000000000014b0 <__libc_csu_init>:
    14b0:	f3 0f 1e fa          	endbr64 
    14b4:	41 57                	push   %r15
    14b6:	4c 8d 3d db 28 00 00 	lea    0x28db(%rip),%r15        # 3d98 <__frame_dummy_init_array_entry>
    14bd:	41 56                	push   %r14
    14bf:	49 89 d6             	mov    %rdx,%r14
    14c2:	41 55                	push   %r13
    14c4:	49 89 f5             	mov    %rsi,%r13
    14c7:	41 54                	push   %r12
    14c9:	41 89 fc             	mov    %edi,%r12d
    14cc:	55                   	push   %rbp
    14cd:	48 8d 2d cc 28 00 00 	lea    0x28cc(%rip),%rbp        # 3da0 <__do_global_dtors_aux_fini_array_entry>
    14d4:	53                   	push   %rbx
    14d5:	4c 29 fd             	sub    %r15,%rbp
    14d8:	48 83 ec 08          	sub    $0x8,%rsp
    14dc:	e8 1f fb ff ff       	call   1000 <_init>
    14e1:	48 c1 fd 03          	sar    $0x3,%rbp
    14e5:	74 1f                	je     1506 <__libc_csu_init+0x56>
    14e7:	31 db                	xor    %ebx,%ebx
    14e9:	0f 1f 80 00 00 00 00 	nopl   0x0(%rax)
    14f0:	4c 89 f2             	mov    %r14,%rdx
    14f3:	4c 89 ee             	mov    %r13,%rsi
    14f6:	44 89 e7             	mov    %r12d,%edi
    14f9:	41 ff 14 df          	call   *(%r15,%rbx,8)
    14fd:	48 83 c3 01          	add    $0x1,%rbx
    1501:	48 39 dd             	cmp    %rbx,%rbp
    1504:	75 ea                	jne    14f0 <__libc_csu_init+0x40>
    1506:	48 83 c4 08          	add    $0x8,%rsp
    150a:	5b                   	pop    %rbx
    150b:	5d                   	pop    %rbp
    150c:	41 5c                	pop    %r12
    150e:	41 5d                	pop    %r13
    1510:	41 5e                	pop    %r14
    1512:	41 5f                	pop    %r15
    1514:	c3                   	ret    
    1515:	66 66 2e 0f 1f 84 00 	data16 cs nopw 0x0(%rax,%rax,1)
    151c:	00 00 00 00 

0000000000001520 <__libc_csu_fini>:
    1520:	f3 0f 1e fa          	endbr64 
    1524:	c3                   	ret    

Disassembly of section .fini:

0000000000001528 <_fini>:
    1528:	f3 0f 1e fa          	endbr64 
    152c:	48 83 ec 08          	sub    $0x8,%rsp
    1530:	48 83 c4 08          	add    $0x8,%rsp
    1534:	c3                   	ret    
